(lp1
ccopy_reg
_reconstructor
p2
(cfarmclasses
farmer
p3
c__builtin__
object
p4
NtRp5
(dp6
S'vertLimit'
p7
I3
sS'name'
p8
S'lakdjfas'
p9
sS'chickenCount'
p10
I0
sS'nextFlag'
p11
I00
sS'farm'
p12
(lp13
(lp14
g2
(cfarmclasses
farmLand
p15
g4
NtRp16
(dp17
S'occupied'
p18
I01
sS'structure'
p19
g2
(cfarmclasses
container
p20
g4
NtRp21
(dp22
S'feedCost'
p23
I15
sS'capacity'
p24
I2
sS'price'
p25
I100
sS'feedQual'
p26
I2
sS'animalList'
p27
(lp28
sS'maintenance'
p29
I40
sS'id'
p30
S'cowpen'
p31
sS'animalCount'
p32
I0
sbsbag2
(g15
g4
NtRp33
(dp34
g18
I00
sg19
g2
(g20
g4
NtRp35
(dp36
g24
I0
sg25
I0
sg26
I2
sg27
(lp37
sg29
I0
sg30
S'empty'
p38
sg32
I0
sbsbaa(lp39
g2
(g15
g4
NtRp40
(dp41
g18
I00
sg19
g2
(g20
g4
NtRp42
(dp43
g24
I0
sg25
I0
sg26
I2
sg27
(lp44
sg29
I0
sg30
g38
sg32
I0
sbsbag2
(g15
g4
NtRp45
(dp46
g18
I00
sg19
g2
(g20
g4
NtRp47
(dp48
g24
I0
sg25
I0
sg26
I2
sg27
(lp49
sg29
I0
sg30
g38
sg32
I0
sbsbaasS'turns'
p50
I1
sS'cowCount'
p51
I0
sS'winFlag'
p52
I00
sS'cash'
p53
I900
sS'sheepCount'
p54
I0
sS'quitFlag'
p55
I00
sS'horLimit'
p56
I3
sS'rentRate'
p57
I10
sba.